; Function Attrs: nounwind sspstrong uwtable
define internal fastcc range(i32 -5, 1) i32 @add_multi_byte_cclass(ptr noundef readonly captures(none) %0, ptr noundef captures(none) %1) unnamed_addr #4 {
  %3 = getelementptr inbounds nuw i8, ptr %0, i64 8
  %4 = load i32, ptr %3, align 8, !tbaa !16
  %5 = getelementptr inbounds nuw i8, ptr %1, i64 8
  %6 = load i32, ptr %5, align 8, !tbaa !115
  %7 = add i32 %6, 4
  %8 = getelementptr inbounds nuw i8, ptr %1, i64 12
  %9 = load i32, ptr %8, align 4, !tbaa !37
  %10 = icmp ult i32 %9, %7
  br i1 %10, label %.preheader.i, label %._crit_edge.i

._crit_edge.i:                                    ; preds = %2
  %.pre.i = load ptr, ptr %1, align 8, !tbaa !17
  br label %19

.preheader.i:                                     ; preds = %2, %.preheader.i
  %11 = phi i32 [ %12, %.preheader.i ], [ %9, %2 ]
  %12 = shl i32 %11, 1
  %13 = icmp ult i32 %12, %7
  br i1 %13, label %.preheader.i, label %14, !llvm.loop !298

14:                                               ; preds = %.preheader.i
  store i32 %12, ptr %8, align 4, !tbaa !37
  %15 = load ptr, ptr %1, align 8, !tbaa !17
  %16 = zext i32 %12 to i64
  %17 = tail call ptr @realloc(ptr noundef %15, i64 noundef %16) #21
  %.not.i = icmp eq ptr %17, null
  %.pre = load i32, ptr %5, align 8, !tbaa !115
  br i1 %.not.i, label %add_length.exit, label %18

18:                                               ; preds = %14
  store ptr %17, ptr %1, align 8, !tbaa !17
  br label %19

19:                                               ; preds = %18, %._crit_edge.i
  %20 = phi i32 [ %6, %._crit_edge.i ], [ %.pre, %18 ]
  %21 = phi ptr [ %.pre.i, %._crit_edge.i ], [ %17, %18 ]
  %22 = zext i32 %20 to i64
  %23 = getelementptr i8, ptr %21, i64 %22
  store i32 %4, ptr %23, align 1
  %24 = load i32, ptr %5, align 8, !tbaa !115
  %25 = icmp ult i32 %24, %7
  br i1 %25, label %26, label %add_length.exit

26:                                               ; preds = %19
  store i32 %7, ptr %5, align 8, !tbaa !115
  br label %add_length.exit

add_length.exit:                                  ; preds = %14, %19, %26
  %27 = phi i32 [ %.pre, %14 ], [ %24, %19 ], [ %7, %26 ]
  %28 = load ptr, ptr %0, align 8, !tbaa !11
  %29 = load i32, ptr %3, align 8, !tbaa !16
  %30 = zext i32 %29 to i64
  %31 = add i32 %27, %29
  %32 = load i32, ptr %8, align 4, !tbaa !37
  %33 = icmp ult i32 %32, %31
  br i1 %33, label %.preheader.i7, label %._crit_edge.i5

._crit_edge.i5:                                   ; preds = %add_length.exit
  %.pre.i6 = load ptr, ptr %1, align 8, !tbaa !17
  br label %42

.preheader.i7:                                    ; preds = %add_length.exit, %.preheader.i7
  %34 = phi i32 [ %35, %.preheader.i7 ], [ %32, %add_length.exit ]
  %35 = shl i32 %34, 1
  %36 = icmp ult i32 %35, %31
  br i1 %36, label %.preheader.i7, label %37, !llvm.loop !299

37:                                               ; preds = %.preheader.i7
  store i32 %35, ptr %8, align 4, !tbaa !37
  %38 = load ptr, ptr %1, align 8, !tbaa !17
  %39 = zext i32 %35 to i64
  %40 = tail call ptr @realloc(ptr noundef %38, i64 noundef %39) #21
  %.not.i8 = icmp eq ptr %40, null
  br i1 %.not.i8, label %add_bytes.exit, label %41

41:                                               ; preds = %37
  store ptr %40, ptr %1, align 8, !tbaa !17
  %.pre31.i = load i32, ptr %5, align 8, !tbaa !115
  br label %42

42:                                               ; preds = %41, %._crit_edge.i5
  %43 = phi i32 [ %27, %._crit_edge.i5 ], [ %.pre31.i, %41 ]
  %44 = phi ptr [ %.pre.i6, %._crit_edge.i5 ], [ %40, %41 ]
  %45 = zext i32 %43 to i64
  %46 = getelementptr i8, ptr %44, i64 %45
  tail call void @llvm.memcpy.p0.p0.i64(ptr noundef nonnull align 1 %46, ptr noundef nonnull readonly align 1 %28, i64 noundef %30, i1 noundef false) #20
  %47 = load i32, ptr %5, align 8, !tbaa !115
  %48 = icmp ult i32 %47, %31
  br i1 %48, label %49, label %add_bytes.exit

49:                                               ; preds = %42
  store i32 %31, ptr %5, align 8, !tbaa !115
  br label %add_bytes.exit

add_bytes.exit:                                   ; preds = %37, %42, %49
  %50 = phi i32 [ -5, %37 ], [ 0, %49 ], [ 0, %42 ]
  ret i32 %50
}